target datalayout = "e-m:e-p270:32:32-p271:32:32-p272:64:64-i64:64-i128:128-f80:128-n8:16:32:64-S128"
target triple = "x86_64-pc-linux-gnu"

; Function Attrs: nounwind uwtable
define hidden void @mbedtls_mpi_core_shift_r(ptr noundef %0, i64 noundef %1, i64 noundef %2) #0 {
  %4 = alloca ptr, align 8
  %5 = alloca i64, align 8
  %6 = alloca i64, align 8
  %7 = alloca i64, align 8
  %8 = alloca i64, align 8
  %9 = alloca i64, align 8
  %10 = alloca i64, align 8
  %11 = alloca i64, align 8
  %12 = alloca i32, align 4
  store ptr %0, ptr %4, align 8, !tbaa !7
  store i64 %1, ptr %5, align 8, !tbaa !3
  store i64 %2, ptr %6, align 8, !tbaa !3
  call void @llvm.lifetime.start.p0(i64 8, ptr %7) #7
  call void @llvm.lifetime.start.p0(i64 8, ptr %8) #7
  call void @llvm.lifetime.start.p0(i64 8, ptr %9) #7
  call void @llvm.lifetime.start.p0(i64 8, ptr %10) #7
  store i64 0, ptr %10, align 8, !tbaa !3
  call void @llvm.lifetime.start.p0(i64 8, ptr %11) #7
  %13 = load i64, ptr %6, align 8, !tbaa !3
  %14 = udiv i64 %13, 64
  store i64 %14, ptr %8, align 8, !tbaa !3
  %15 = load i64, ptr %6, align 8, !tbaa !3
  %16 = and i64 %15, 63
  store i64 %16, ptr %9, align 8, !tbaa !3
  %17 = load i64, ptr %8, align 8, !tbaa !3
  %18 = load i64, ptr %5, align 8, !tbaa !3
  %19 = icmp ugt i64 %17, %18
  br i1 %19, label %27, label %20

20:                                               ; preds = %3
  %21 = load i64, ptr %8, align 8, !tbaa !3
  %22 = load i64, ptr %5, align 8, !tbaa !3
  %23 = icmp eq i64 %21, %22
  br i1 %23, label %24, label %31

24:                                               ; preds = %20
  %25 = load i64, ptr %9, align 8, !tbaa !3
  %26 = icmp ugt i64 %25, 0
  br i1 %26, label %27, label %31

27:                                               ; preds = %24, %3
  %28 = load ptr, ptr %4, align 8, !tbaa !7
  %29 = load i64, ptr %5, align 8, !tbaa !3
  %30 = mul i64 %29, 8
  call void @llvm.memset.p0.i64(ptr align 8 %28, i8 0, i64 %30, i1 false)
  store i32 1, ptr %12, align 4
  br label %104

31:                                               ; preds = %24, %20
  %32 = load i64, ptr %8, align 8, !tbaa !3
  %33 = icmp ugt i64 %32, 0
  br i1 %33, label %34, label %67

34:                                               ; preds = %31
  store i64 0, ptr %7, align 8, !tbaa !3
  br label %35

35:                                               ; preds = %51, %34
  %36 = load i64, ptr %7, align 8, !tbaa !3
  %37 = load i64, ptr %5, align 8, !tbaa !3
  %38 = load i64, ptr %8, align 8, !tbaa !3
  %39 = sub i64 %37, %38
  %40 = icmp ult i64 %36, %39
  br i1 %40, label %41, label %54

41:                                               ; preds = %35
  %42 = load ptr, ptr %4, align 8, !tbaa !7
  %43 = load i64, ptr %7, align 8, !tbaa !3
  %44 = load i64, ptr %8, align 8, !tbaa !3
  %45 = add i64 %43, %44
  %46 = getelementptr inbounds nuw i64, ptr %42, i64 %45
  %47 = load i64, ptr %46, align 8, !tbaa !3
  %48 = load ptr, ptr %4, align 8, !tbaa !7
  %49 = load i64, ptr %7, align 8, !tbaa !3
  %50 = getelementptr inbounds nuw i64, ptr %48, i64 %49
  store i64 %47, ptr %50, align 8, !tbaa !3
  br label %51

51:                                               ; preds = %41
  %52 = load i64, ptr %7, align 8, !tbaa !3
  %53 = add i64 %52, 1
  store i64 %53, ptr %7, align 8, !tbaa !3
  br label %35, !llvm.loop !30

54:                                               ; preds = %35
  br label %55

55:                                               ; preds = %63, %54
  %56 = load i64, ptr %7, align 8, !tbaa !3
  %57 = load i64, ptr %5, align 8, !tbaa !3
  %58 = icmp ult i64 %56, %57
  br i1 %58, label %59, label %66

59:                                               ; preds = %55
  %60 = load ptr, ptr %4, align 8, !tbaa !7
  %61 = load i64, ptr %7, align 8, !tbaa !3
  %62 = getelementptr inbounds nuw i64, ptr %60, i64 %61
  store i64 0, ptr %62, align 8, !tbaa !3
  br label %63

63:                                               ; preds = %59
  %64 = load i64, ptr %7, align 8, !tbaa !3
  %65 = add i64 %64, 1
  store i64 %65, ptr %7, align 8, !tbaa !3
  br label %55, !llvm.loop !31

66:                                               ; preds = %55
  br label %67

67:                                               ; preds = %66, %31
  %68 = load i64, ptr %9, align 8, !tbaa !3
  %69 = icmp ugt i64 %68, 0
  br i1 %69, label %70, label %103

70:                                               ; preds = %67
  %71 = load i64, ptr %5, align 8, !tbaa !3
  store i64 %71, ptr %7, align 8, !tbaa !3
  br label %72

72:                                               ; preds = %99, %70
  %73 = load i64, ptr %7, align 8, !tbaa !3
  %74 = icmp ugt i64 %73, 0
  br i1 %74, label %75, label %102

75:                                               ; preds = %72
  %76 = load ptr, ptr %4, align 8, !tbaa !7
  %77 = load i64, ptr %7, align 8, !tbaa !3
  %78 = sub i64 %77, 1
  %79 = getelementptr inbounds nuw i64, ptr %76, i64 %78
  %80 = load i64, ptr %79, align 8, !tbaa !3
  %81 = load i64, ptr %9, align 8, !tbaa !3
  %82 = sub i64 64, %81
  %83 = shl i64 %80, %82
  store i64 %83, ptr %11, align 8, !tbaa !3
  %84 = load i64, ptr %9, align 8, !tbaa !3
  %85 = load ptr, ptr %4, align 8, !tbaa !7
  %86 = load i64, ptr %7, align 8, !tbaa !3
  %87 = sub i64 %86, 1
  %88 = getelementptr inbounds nuw i64, ptr %85, i64 %87
  %89 = load i64, ptr %88, align 8, !tbaa !3
  %90 = lshr i64 %89, %84
  store i64 %90, ptr %88, align 8, !tbaa !3
  %91 = load i64, ptr %10, align 8, !tbaa !3
  %92 = load ptr, ptr %4, align 8, !tbaa !7
  %93 = load i64, ptr %7, align 8, !tbaa !3
  %94 = sub i64 %93, 1
  %95 = getelementptr inbounds nuw i64, ptr %92, i64 %94
  %96 = load i64, ptr %95, align 8, !tbaa !3
  %97 = or i64 %96, %91
  store i64 %97, ptr %95, align 8, !tbaa !3
  %98 = load i64, ptr %11, align 8, !tbaa !3
  store i64 %98, ptr %10, align 8, !tbaa !3
  br label %99

99:                                               ; preds = %75
  %100 = load i64, ptr %7, align 8, !tbaa !3
  %101 = add i64 %100, -1
  store i64 %101, ptr %7, align 8, !tbaa !3
  br label %72, !llvm.loop !32

102:                                              ; preds = %72
  br label %103

103:                                              ; preds = %102, %67
  store i32 0, ptr %12, align 4
  br label %104

104:                                              ; preds = %103, %27
  call void @llvm.lifetime.end.p0(i64 8, ptr %11) #7
  call void @llvm.lifetime.end.p0(i64 8, ptr %10) #7
  call void @llvm.lifetime.end.p0(i64 8, ptr %9) #7
  call void @llvm.lifetime.end.p0(i64 8, ptr %8) #7
  call void @llvm.lifetime.end.p0(i64 8, ptr %7) #7
  %105 = load i32, ptr %12, align 4
  switch i32 %105, label %107 [
    i32 0, label %106
    i32 1, label %106
  ]

106:                                              ; preds = %104, %104
  ret void

107:                                              ; preds = %104
  unreachable
}