; Function Attrs: nofree norecurse nosync nounwind memory(argmem: readwrite) uwtable
define hidden void @mbedtls_mpi_core_shift_r(ptr noundef captures(none) %0, i64 noundef %1, i64 noundef %2) local_unnamed_addr #4 {
  %4 = lshr i64 %2, 6
  %5 = and i64 %2, 63
  %6 = icmp ugt i64 %4, %1
  br i1 %6, label %10, label %7

7:                                                ; preds = %3
  %8 = icmp eq i64 %4, %1
  %9 = icmp ne i64 %5, 0
  %or.cond = and i1 %8, %9
  br i1 %or.cond, label %10, label %12

10:                                               ; preds = %7, %3
  %11 = shl nuw nsw i64 %1, 3
  tail call void @llvm.memset.p0.i64(ptr align 8 %0, i8 0, i64 %11, i1 false)
  br label %.loopexit

12:                                               ; preds = %7
  %.not = icmp ult i64 %2, 64
  br i1 %.not, label %.loopexit44, label %.preheader45

.preheader45:                                     ; preds = %12
  %13 = sub i64 %1, %4
  br i1 %8, label %.preheader43, label %.lr.ph

.preheader43:                                     ; preds = %.lr.ph, %.preheader45
  %14 = icmp ult i64 %13, %1
  br i1 %14, label %.lr.ph48.preheader, label %.loopexit44

.lr.ph48.preheader:                               ; preds = %.preheader43
  %15 = shl i64 %13, 3
  %scevgep = getelementptr i8, ptr %0, i64 %15
  %16 = shl nuw nsw i64 %4, 3
  tail call void @llvm.memset.p0.i64(ptr align 8 %scevgep, i8 0, i64 %16, i1 false), !tbaa !3
  br label %.loopexit44

.lr.ph:                                           ; preds = %.preheader45, %.lr.ph
  %.046 = phi i64 [ %20, %.lr.ph ], [ 0, %.preheader45 ]
  %17 = getelementptr i64, ptr %0, i64 %.046
  %18 = getelementptr i64, ptr %17, i64 %4
  %19 = load i64, ptr %18, align 8, !tbaa !3
  store i64 %19, ptr %17, align 8, !tbaa !3
  %20 = add nuw i64 %.046, 1
  %exitcond.not = icmp eq i64 %20, %13
  br i1 %exitcond.not, label %.preheader43, label %.lr.ph, !llvm.loop !24

.loopexit44:                                      ; preds = %.lr.ph48.preheader, %.preheader43, %12
  br i1 %9, label %.preheader, label %.loopexit

.preheader:                                       ; preds = %.loopexit44
  %invariant.gep = getelementptr i8, ptr %0, i64 -8
  %.not4249 = icmp eq i64 %1, 0
  br i1 %.not4249, label %.loopexit, label %.lr.ph52

.lr.ph52:                                         ; preds = %.preheader
  %21 = sub nuw nsw i64 64, %5
  br label %22

22:                                               ; preds = %.lr.ph52, %22
  %.251 = phi i64 [ %1, %.lr.ph52 ], [ %27, %22 ]
  %.03850 = phi i64 [ 0, %.lr.ph52 ], [ %24, %22 ]
  %gep = getelementptr i64, ptr %invariant.gep, i64 %.251
  %23 = load i64, ptr %gep, align 8, !tbaa !3
  %24 = shl i64 %23, %21
  %25 = lshr i64 %23, %5
  %26 = or i64 %25, %.03850
  store i64 %26, ptr %gep, align 8, !tbaa !3
  %27 = add i64 %.251, -1
  %.not42 = icmp eq i64 %27, 0
  br i1 %.not42, label %.loopexit, label %22, !llvm.loop !25

.loopexit:                                        ; preds = %22, %.preheader, %.loopexit44, %10
  ret void
}